; Function Attrs: mustprogress uwtable
define hidden noundef i32 @_ZN14arith_rewriter18mk_div_irrat_irratEP4exprS1_R7obj_refIS0_11ast_managerE(ptr noundef nonnull align 8 dereferenceable(96) %this, ptr noundef %arg1, ptr noundef %arg2, ptr nocapture noundef nonnull align 8 dereferenceable(16) %result) local_unnamed_addr #3 align 2 personality ptr @__gxx_personality_v0 {
entry:
  %r = alloca %class._scoped_numeral, align 8
  %m_util = getelementptr inbounds i8, ptr %this, i64 8
  %m_plugin.i.i = getelementptr inbounds i8, ptr %this, i64 16
  %0 = load ptr, ptr %m_plugin.i.i, align 8
  %tobool.not.i.i = icmp eq ptr %0, null
  br i1 %tobool.not.i.i, label %if.then.i.i, label %_ZNK10arith_util2amEv.exit

if.then.i.i:                                      ; preds = %entry
  tail call void @_ZN10arith_util11init_pluginEv(ptr noundef nonnull align 8 dereferenceable(16) %m_util)
  %.pre.i.i = load ptr, ptr %m_plugin.i.i, align 8
  br label %_ZNK10arith_util2amEv.exit

_ZNK10arith_util2amEv.exit:                       ; preds = %entry, %if.then.i.i
  %1 = phi ptr [ %.pre.i.i, %if.then.i.i ], [ %0, %entry ]
  %call2.i = tail call noundef nonnull align 8 dereferenceable(17) ptr @_ZNK17arith_decl_plugin2amEv(ptr noundef nonnull align 8 dereferenceable(441) %1)
  %call3 = tail call noundef nonnull align 8 dereferenceable(8) ptr @_ZNK10arith_util31to_irrational_algebraic_numeralEPK4expr(ptr noundef nonnull align 8 dereferenceable(16) %m_util, ptr noundef %arg1)
  %call4 = tail call noundef i32 @_ZN17algebraic_numbers7manager6degreeERKNS_4anumE(ptr noundef nonnull align 8 dereferenceable(17) %call2.i, ptr noundef nonnull align 8 dereferenceable(8) %call3)
  %m_max_degree = getelementptr inbounds i8, ptr %this, i64 92
  %2 = load i32, ptr %m_max_degree, align 4
  %cmp = icmp ugt i32 %call4, %2
  br i1 %cmp, label %return, label %if.end

if.end:                                           ; preds = %_ZNK10arith_util2amEv.exit
  %call6 = tail call noundef nonnull align 8 dereferenceable(8) ptr @_ZNK10arith_util31to_irrational_algebraic_numeralEPK4expr(ptr noundef nonnull align 8 dereferenceable(16) %m_util, ptr noundef %arg2)
  %call7 = tail call noundef i32 @_ZN17algebraic_numbers7manager6degreeERKNS_4anumE(ptr noundef nonnull align 8 dereferenceable(17) %call2.i, ptr noundef nonnull align 8 dereferenceable(8) %call6)
  %3 = load i32, ptr %m_max_degree, align 4
  %cmp9 = icmp ugt i32 %call7, %3
  br i1 %cmp9, label %return, label %if.end11

if.end11:                                         ; preds = %if.end
  store ptr %call2.i, ptr %r, align 8
  %m_num.i = getelementptr inbounds i8, ptr %r, i64 8
  store ptr null, ptr %m_num.i, align 8
  invoke void @_ZN17algebraic_numbers7manager3divERKNS_4anumES3_RS1_(ptr noundef nonnull align 8 dereferenceable(17) %call2.i, ptr noundef nonnull align 8 dereferenceable(8) %call3, ptr noundef nonnull align 8 dereferenceable(8) %call6, ptr noundef nonnull align 8 dereferenceable(8) %m_num.i)
          to label %invoke.cont13 unwind label %lpad

invoke.cont13:                                    ; preds = %if.end11
  %4 = load ptr, ptr %m_plugin.i.i, align 8
  %tobool.not.i.i10 = icmp eq ptr %4, null
  br i1 %tobool.not.i.i10, label %if.then.i.i12, label %_ZNK10arith_util6pluginEv.exit.i

if.then.i.i12:                                    ; preds = %invoke.cont13
  invoke void @_ZN10arith_util11init_pluginEv(ptr noundef nonnull align 8 dereferenceable(16) %m_util)
          to label %.noexc unwind label %lpad

.noexc:                                           ; preds = %if.then.i.i12
  %.pre.i.i13 = load ptr, ptr %m_plugin.i.i, align 8
  br label %_ZNK10arith_util6pluginEv.exit.i

_ZNK10arith_util6pluginEv.exit.i:                 ; preds = %.noexc, %invoke.cont13
  %5 = phi ptr [ %.pre.i.i13, %.noexc ], [ %4, %invoke.cont13 ]
  %call2.i1114 = invoke noundef ptr @_ZN17arith_decl_plugin10mk_numeralERN17algebraic_numbers7managerERKNS0_4anumEb(ptr noundef nonnull align 8 dereferenceable(441) %5, ptr noundef nonnull align 8 dereferenceable(17) %call2.i, ptr noundef nonnull align 8 dereferenceable(8) %m_num.i, i1 noundef zeroext false)
          to label %invoke.cont17 unwind label %lpad

invoke.cont17:                                    ; preds = %_ZNK10arith_util6pluginEv.exit.i
  %tobool.not.i = icmp eq ptr %call2.i1114, null
  br i1 %tobool.not.i, label %if.end.i, label %_ZN11ast_manager7inc_refEP3ast.exit.i

_ZN11ast_manager7inc_refEP3ast.exit.i:            ; preds = %invoke.cont17
  %m_ref_count.i.i.i = getelementptr inbounds i8, ptr %call2.i1114, i64 8
  %6 = load i32, ptr %m_ref_count.i.i.i, align 4
  %inc.i.i.i = add i32 %6, 1
  store i32 %inc.i.i.i, ptr %m_ref_count.i.i.i, align 4
  br label %if.end.i

if.end.i:                                         ; preds = %_ZN11ast_manager7inc_refEP3ast.exit.i, %invoke.cont17
  %7 = load ptr, ptr %result, align 8
  %tobool.not.i3.i = icmp eq ptr %7, null
  br i1 %tobool.not.i3.i, label %invoke.cont19, label %if.then.i.i.i

if.then.i.i.i:                                    ; preds = %if.end.i
  %m_manager.i.i = getelementptr inbounds i8, ptr %result, i64 8
  %8 = load ptr, ptr %m_manager.i.i, align 8
  %m_ref_count.i.i.i.i = getelementptr inbounds i8, ptr %7, i64 8
  %9 = load i32, ptr %m_ref_count.i.i.i.i, align 4
  %dec.i.i.i.i = add i32 %9, -1
  store i32 %dec.i.i.i.i, ptr %m_ref_count.i.i.i.i, align 4
  %cmp.i.i.i = icmp eq i32 %dec.i.i.i.i, 0
  br i1 %cmp.i.i.i, label %if.then2.i.i.i, label %invoke.cont19

if.then2.i.i.i:                                   ; preds = %if.then.i.i.i
  invoke void @_ZN11ast_manager11delete_nodeEP3ast(ptr noundef nonnull align 8 dereferenceable(976) %8, ptr noundef nonnull %7)
          to label %invoke.cont19 unwind label %lpad

invoke.cont19:                                    ; preds = %if.then.i.i.i, %if.end.i, %if.then2.i.i.i
  store ptr %call2.i1114, ptr %result, align 8
  %10 = load ptr, ptr %r, align 8
  invoke void @_ZN17algebraic_numbers7manager3delERNS_4anumE(ptr noundef nonnull align 8 dereferenceable(17) %10, ptr noundef nonnull align 8 dereferenceable(8) %m_num.i)
          to label %return unwind label %terminate.lpad.i

terminate.lpad.i:                                 ; preds = %invoke.cont19
  %11 = landingpad { ptr, i32 }
          catch ptr null
  %12 = extractvalue { ptr, i32 } %11, 0
  call void @__clang_call_terminate(ptr %12) #20
  unreachable

lpad:                                             ; preds = %if.then2.i.i.i, %_ZNK10arith_util6pluginEv.exit.i, %if.then.i.i12, %if.end11
  %13 = landingpad { ptr, i32 }
          cleanup
  call void @_ZN15_scoped_numeralIN17algebraic_numbers7managerEED2Ev(ptr noundef nonnull align 8 dereferenceable(16) %r) #18
  resume { ptr, i32 } %13

return:                                           ; preds = %invoke.cont19, %if.end, %_ZNK10arith_util2amEv.exit
  %retval.0 = phi i32 [ 5, %_ZNK10arith_util2amEv.exit ], [ 5, %if.end ], [ 4, %invoke.cont19 ]
  ret i32 %retval.0
}